target datalayout = "e-m:e-p270:32:32-p271:32:32-p272:64:64-i64:64-i128:128-f80:128-n8:16:32:64-S128"
target triple = "x86_64-pc-linux-gnu"

%"class.pybind11::object" = type { %"class.pybind11::handle" }
%"class.pybind11::handle" = type { ptr }
%"class.pybind11::str" = type { %"class.pybind11::object" }

@.str = private unnamed_addr constant [50 x i8] c"my_func(x:int={}, y:float={:.0f}, z:float={:.0f})\00", align 1

; Function Attrs: mustprogress uwtable
define linkonce_odr hidden void @_ZN8pybind118literalsli2_sEPKcm(ptr dead_on_unwind noalias writable sret(%"class.pybind11::str") align 8 %0, ptr noundef %1, i64 noundef %2) #1 comdat {
  %4 = alloca ptr, align 8
  %5 = alloca ptr, align 8
  %6 = alloca i64, align 8
  store ptr %0, ptr %4, align 8
  store ptr %1, ptr %5, align 8
  store i64 %2, ptr %6, align 8
  %7 = load ptr, ptr %5, align 8
  call void @_ZN8pybind113strC2ImTnNSt9enable_ifIXsr3std11is_integralIT_EE5valueEiE4typeELi0EEEPKcRKS3_(ptr noundef nonnull align 8 dereferenceable(8) %0, ptr noundef %7, ptr noundef nonnull align 8 dereferenceable(8) %6)
  ret void
}

; Function Attrs: mustprogress uwtable
define hidden noundef double @_Z7my_funcifd(i32 noundef %0, float noundef %1, double noundef %2) #1 personality ptr @__gxx_personality_v0 {
  %4 = alloca i32, align 4
  %5 = alloca float, align 4
  %6 = alloca double, align 8
  %7 = alloca %"class.pybind11::str", align 8
  %8 = alloca %"class.pybind11::str", align 8
  %9 = alloca ptr, align 8
  %10 = alloca i32, align 4
  store i32 %0, ptr %4, align 4
  store float %1, ptr %5, align 4
  store double %2, ptr %6, align 8
  call void @_ZN8pybind118literalsli2_sEPKcm(ptr dead_on_unwind writable sret(%"class.pybind11::str") align 8 %8, ptr noundef @.str, i64 noundef 49)
  invoke void @_ZNK8pybind113str6formatIJRiRfRdEEES0_DpOT_(ptr dead_on_unwind writable sret(%"class.pybind11::str") align 8 %7, ptr noundef nonnull align 8 dereferenceable(8) %8, ptr noundef nonnull align 4 dereferenceable(4) %4, ptr noundef nonnull align 4 dereferenceable(4) %5, ptr noundef nonnull align 8 dereferenceable(8) %6)
          to label %11 unwind label %20

11:                                               ; preds = %3
  invoke void @_ZN8pybind115printILNS_19return_value_policyE1EJNS_3strEEEEvDpOT0_(ptr noundef nonnull align 8 dereferenceable(8) %7)
          to label %12 unwind label %24

12:                                               ; preds = %11
  call void @_ZN8pybind113strD2Ev(ptr noundef nonnull align 8 dereferenceable(8) %7) #16
  call void @_ZN8pybind113strD2Ev(ptr noundef nonnull align 8 dereferenceable(8) %8) #16
  %13 = load i32, ptr %4, align 4
  %14 = sitofp i32 %13 to float
  %15 = load float, ptr %5, align 4
  %16 = fmul float %14, %15
  %17 = fpext float %16 to double
  %18 = load double, ptr %6, align 8
  %19 = fmul double %17, %18
  ret double %19

20:                                               ; preds = %3
  %21 = landingpad { ptr, i32 }
          cleanup
  %22 = extractvalue { ptr, i32 } %21, 0
  store ptr %22, ptr %9, align 8
  %23 = extractvalue { ptr, i32 } %21, 1
  store i32 %23, ptr %10, align 4
  br label %28

24:                                               ; preds = %11
  %25 = landingpad { ptr, i32 }
          cleanup
  %26 = extractvalue { ptr, i32 } %25, 0
  store ptr %26, ptr %9, align 8
  %27 = extractvalue { ptr, i32 } %25, 1
  store i32 %27, ptr %10, align 4
  call void @_ZN8pybind113strD2Ev(ptr noundef nonnull align 8 dereferenceable(8) %7) #16
  br label %28

28:                                               ; preds = %24, %20
  call void @_ZN8pybind113strD2Ev(ptr noundef nonnull align 8 dereferenceable(8) %8) #16
  br label %29

29:                                               ; preds = %28
  %30 = load ptr, ptr %9, align 8
  %31 = load i32, ptr %10, align 4
  %32 = insertvalue { ptr, i32 } poison, ptr %30, 0
  %33 = insertvalue { ptr, i32 } %32, i32 %31, 1
  resume { ptr, i32 } %33
}