; Function Attrs: mustprogress uwtable
define hidden noundef double @_Z7my_funcifd(i32 noundef %0, float noundef %1, double noundef %2) #1 personality ptr @__gxx_personality_v0 {
  %4 = alloca i64, align 8
  %5 = alloca i32, align 4
  %6 = alloca float, align 4
  %7 = alloca double, align 8
  %8 = alloca %"class.pybind11::str", align 8
  %9 = alloca %"class.pybind11::str", align 8
  store i32 %0, ptr %5, align 4
  store float %1, ptr %6, align 4
  store double %2, ptr %7, align 8
  call void @llvm.lifetime.start.p0(i64 8, ptr nonnull %4)
  store i64 49, ptr %4, align 8, !noalias !4
  call void @_ZN8pybind113strC2ImTnNSt9enable_ifIXsr3std11is_integralIT_EE5valueEiE4typeELi0EEEPKcRKS3_(ptr noundef nonnull align 8 dereferenceable(8) %9, ptr noundef nonnull @.str, ptr noundef nonnull align 8 dereferenceable(8) %4)
  call void @llvm.lifetime.end.p0(i64 8, ptr nonnull %4)
  invoke void @_ZNK8pybind113str6formatIJRiRfRdEEES0_DpOT_(ptr dead_on_unwind nonnull writable sret(%"class.pybind11::str") align 8 %8, ptr noundef nonnull align 8 dereferenceable(8) %9, ptr noundef nonnull align 4 dereferenceable(4) %5, ptr noundef nonnull align 4 dereferenceable(4) %6, ptr noundef nonnull align 8 dereferenceable(8) %7)
          to label %10 unwind label %35

10:                                               ; preds = %3
  invoke void @_ZN8pybind115printILNS_19return_value_policyE1EJNS_3strEEEEvDpOT0_(ptr noundef nonnull align 8 dereferenceable(8) %8)
          to label %11 unwind label %37

11:                                               ; preds = %10
  %12 = load ptr, ptr %8, align 8
  %.not.i.i.i.i = icmp eq ptr %12, null
  br i1 %.not.i.i.i.i, label %_ZN8pybind113strD2Ev.exit, label %13

13:                                               ; preds = %11
  %14 = load i64, ptr %12, align 8
  %15 = add nsw i64 %14, -1
  store i64 %15, ptr %12, align 8
  %.not.i.i.i.i.i = icmp eq i64 %15, 0
  br i1 %.not.i.i.i.i.i, label %16, label %_ZN8pybind113strD2Ev.exit

16:                                               ; preds = %13
  invoke void @_Py_Dealloc(ptr noundef nonnull %12)
          to label %_ZN8pybind113strD2Ev.exit unwind label %17

17:                                               ; preds = %16
  %18 = landingpad { ptr, i32 }
          catch ptr null
  %19 = extractvalue { ptr, i32 } %18, 0
  call void @__clang_call_terminate(ptr %19) #26
  unreachable

_ZN8pybind113strD2Ev.exit:                        ; preds = %11, %13, %16
  %20 = load ptr, ptr %9, align 8
  %.not.i.i.i.i3 = icmp eq ptr %20, null
  br i1 %.not.i.i.i.i3, label %_ZN8pybind113strD2Ev.exit5, label %21

21:                                               ; preds = %_ZN8pybind113strD2Ev.exit
  %22 = load i64, ptr %20, align 8
  %23 = add nsw i64 %22, -1
  store i64 %23, ptr %20, align 8
  %.not.i.i.i.i.i4 = icmp eq i64 %23, 0
  br i1 %.not.i.i.i.i.i4, label %24, label %_ZN8pybind113strD2Ev.exit5

24:                                               ; preds = %21
  invoke void @_Py_Dealloc(ptr noundef nonnull %20)
          to label %_ZN8pybind113strD2Ev.exit5 unwind label %25

25:                                               ; preds = %24
  %26 = landingpad { ptr, i32 }
          catch ptr null
  %27 = extractvalue { ptr, i32 } %26, 0
  call void @__clang_call_terminate(ptr %27) #26
  unreachable

_ZN8pybind113strD2Ev.exit5:                       ; preds = %_ZN8pybind113strD2Ev.exit, %21, %24
  %28 = load i32, ptr %5, align 4
  %29 = sitofp i32 %28 to float
  %30 = load float, ptr %6, align 4
  %31 = fmul float %30, %29
  %32 = fpext float %31 to double
  %33 = load double, ptr %7, align 8
  %34 = fmul double %33, %32
  ret double %34

35:                                               ; preds = %3
  %36 = landingpad { ptr, i32 }
          cleanup
  br label %39

37:                                               ; preds = %10
  %38 = landingpad { ptr, i32 }
          cleanup
  call void @_ZN8pybind113strD2Ev(ptr noundef nonnull align 8 dereferenceable(8) %8) #25
  br label %39

39:                                               ; preds = %37, %35
  %.pn = phi { ptr, i32 } [ %38, %37 ], [ %36, %35 ]
  call void @_ZN8pybind113strD2Ev(ptr noundef nonnull align 8 dereferenceable(8) %9) #25
  resume { ptr, i32 } %.pn
}